ccopy_reg
_reconstructor
p0
(c__main__
Cache
p1
c__builtin__
object
p2
Ntp3
Rp4
(dp5
S'status'
p6
S'published'
p7
sS'title'
p8
S'Docker Image Amending'
p9
sS'url'
p10
S'http://sfxpt.wordpress.com/2013/12/23/docker-image-amending/'
p11
sS'checksum'
p12
S'f15ced134f358d50a5b0989eef93191c'
p13
sS'created_at'
p14
I1387839089
sS'doctype'
p15
S'article'
p16
sS'updated_at'
p17
I1387857146
sS'post_type'
p18
S'post'
p19
sS'media'
p20
(dp21
sS'id'
p22
I234
sS'categories'
p23
(lp24
S'Docker'
p25
asb.