ccopy_reg
_reconstructor
p0
(c__main__
Cache
p1
c__builtin__
object
p2
Ntp3
Rp4
(dp5
S'status'
p6
S'published'
p7
sS'title'
p8
S'Git and SSH keys'
p9
sS'url'
p10
S'http://sfxpt.wordpress.com/2013/02/18/git-and-ssh-keys/'
p11
sS'checksum'
p12
S'cd5cfaaed64eeff2898f3e83a985002d'
p13
sS'created_at'
p14
I1361195386
sS'doctype'
p15
S'article'
p16
sS'updated_at'
p17
I1361231434
sS'post_type'
p18
S'post'
p19
sS'media'
p20
(dp21
sS'id'
p22
I118
sS'categories'
p23
(lp24
S'git'
p25
asb.