ccopy_reg
_reconstructor
p0
(c__main__
Cache
p1
c__builtin__
object
p2
Ntp3
Rp4
(dp5
S'status'
p6
S'published'
p7
sS'title'
p8
S'libpam-ssh-agent-auth'
p9
sS'url'
p10
S'http://sfxpt.wordpress.com/libpam-ssh-agent-auth/'
p11
sS'checksum'
p12
S'ba0ef69f81f9e1d29d6a4d55f0c44c60'
p13
sS'created_at'
p14
I1372997939
sS'doctype'
p15
S'article'
p16
sS'updated_at'
p17
I1373070953
sS'post_type'
p18
S'page'
p19
sS'media'
p20
(dp21
sS'id'
p22
I183
sS'categories'
p23
(lp24
S'Debian'
p25
aS'Ubuntu'
p26
aS'ssh'
p27
aS'pam'
p28
aS'authentication'
p29
aS'sodu'
p30
asb.