ccopy_reg
_reconstructor
p0
(c__main__
Cache
p1
c__builtin__
object
p2
Ntp3
Rp4
(dp5
S'status'
p6
S'published'
p7
sS'title'
p8
S'package'
p9
sS'url'
p10
S'http://sfxpt.wordpress.com/package/'
p11
sS'checksum'
p12
S'6ded8e4f80f725bf2e19270a00884f3c'
p13
sS'created_at'
p14
I1387799185
sS'doctype'
p15
S'article'
p16
sS'updated_at'
p17
I1389231375
sS'post_type'
p18
S'page'
p19
sS'media'
p20
(dp21
sS'id'
p22
I231
sS'categories'
p23
(lp24
sb.