ccopy_reg
_reconstructor
p0
(c__main__
Cache
p1
c__builtin__
object
p2
Ntp3
Rp4
(dp5
S'status'
p6
S'published'
p7
sS'title'
p8
S'shc-3.8.9 is not usable'
p9
sS'url'
p10
S'http://sfxpt.wordpress.com/2014/02/23/shc-3-8-9-is-not-usable/'
p11
sS'checksum'
p12
S'e31297d59699acc0bc169e6d38e4043f'
p13
sS'created_at'
p14
I1393153323
sS'doctype'
p15
S'article'
p16
sS'updated_at'
p17
I1393171442
sS'post_type'
p18
S'post'
p19
sS'media'
p20
(dp21
sS'id'
p22
I251
sS'categories'
p23
(lp24
S'linux'
p25
asb.