ccopy_reg
_reconstructor
p0
(c__main__
Cache
p1
c__builtin__
object
p2
Ntp3
Rp4
(dp5
S'status'
p6
S'published'
p7
sS'title'
p8
S'Using libpam-ssh-agent-auth for sudo authentication'
p9
sS'url'
p10
S'http://sfxpt.wordpress.com/2013/07/05/using-libpam-ssh-agent-auth-for-sudo-authentication/'
p11
sS'checksum'
p12
S'79082625b71682ab0ec45ca74f34331e'
p13
sS'created_at'
p14
I1373057098
sS'doctype'
p15
S'article'
p16
sS'updated_at'
p17
I1373071597
sS'post_type'
p18
S'post'
p19
sS'media'
p20
(dp21
sS'id'
p22
I189
sS'categories'
p23
(lp24
S'Debian'
p25
aS'Ubuntu'
p26
aS'ssh'
p27
aS'pam'
p28
aS'authentication'
p29
aS'sodu'
p30
asb.